target datalayout = "e-m:e-p270:32:32-p271:32:32-p272:64:64-i64:64-i128:128-f80:128-n8:16:32:64-S128"
target triple = "x86_64-pc-linux-gnu"

%"class.g2o::OptimizableGraph::Vertex" = type { %"class.g2o::HyperGraph::Vertex", %"class.g2o::HyperGraph::DataContainer", ptr, ptr, i32, i8, i8, i32, i32, [8 x i8], ptr }
%"class.g2o::HyperGraph::Vertex" = type { %"struct.g2o::HyperGraph::HyperGraphElement", i32, %"class.std::set" }
%"struct.g2o::HyperGraph::HyperGraphElement" = type { ptr }
%"class.std::set" = type { %"class.std::_Rb_tree" }
%"class.std::_Rb_tree" = type { %"struct.std::_Rb_tree<g2o::HyperGraph::Edge *, g2o::HyperGraph::Edge *, std::_Identity<g2o::HyperGraph::Edge *>, std::less<g2o::HyperGraph::Edge *>>::_Rb_tree_impl" }
%"struct.std::_Rb_tree<g2o::HyperGraph::Edge *, g2o::HyperGraph::Edge *, std::_Identity<g2o::HyperGraph::Edge *>, std::less<g2o::HyperGraph::Edge *>>::_Rb_tree_impl" = type { [8 x i8], %"struct.std::_Rb_tree_header" }
%"struct.std::_Rb_tree_header" = type { %"struct.std::_Rb_tree_node_base", i64 }
%"struct.std::_Rb_tree_node_base" = type { i32, ptr, ptr, ptr }
%"class.g2o::HyperGraph::DataContainer" = type { ptr, ptr }
%"class.g2o::HyperGraph" = type { ptr, %"class.std::unordered_map", %"class.std::set" }
%"class.std::unordered_map" = type { %"class.std::_Hashtable" }
%"class.std::_Hashtable" = type { ptr, i64, %"struct.std::__detail::_Hash_node_base", i64, %"struct.std::__detail::_Prime_rehash_policy", ptr }
%"struct.std::__detail::_Hash_node_base" = type { ptr }
%"struct.std::__detail::_Prime_rehash_policy" = type { float, i64 }
%"struct.std::__detail::_Node_iterator_base" = type { ptr }
%"struct.std::pair" = type { i32, ptr }
%"struct.std::__detail::_Node_const_iterator" = type { %"struct.std::__detail::_Node_iterator_base" }
%"struct.std::__detail::_Hash_node_value_base" = type { %"struct.__gnu_cxx::__aligned_buffer" }
%"struct.__gnu_cxx::__aligned_buffer" = type { %"union.std::aligned_storage<16, 8>::type" }
%"union.std::aligned_storage<16, 8>::type" = type { [16 x i8] }

; Function Attrs: mustprogress nounwind uwtable
define linkonce_odr noundef ptr @_ZN9__gnu_cxx16__aligned_bufferISt4pairIKiPN3g2o10HyperGraph6VertexEEE7_M_addrEv(ptr noundef nonnull align 8 dereferenceable(16) %0) #4 comdat align 2 {
  %2 = alloca ptr, align 8
  store ptr %0, ptr %2, align 8, !tbaa !593
  %3 = load ptr, ptr %2, align 8
  %4 = getelementptr inbounds nuw %"struct.__gnu_cxx::__aligned_buffer", ptr %3, i32 0, i32 0
  ret ptr %4
}

; Function Attrs: mustprogress nounwind uwtable
define linkonce_odr void @_ZNSt8__detail19_Node_iterator_baseISt4pairIKiPN3g2o10HyperGraph6VertexEELb0EEC2EPNS_10_Hash_nodeIS7_Lb0EEE(ptr noundef nonnull align 8 dereferenceable(8) %0, ptr noundef %1) unnamed_addr #4 comdat align 2 {
  %3 = alloca ptr, align 8
  %4 = alloca ptr, align 8
  store ptr %0, ptr %3, align 8, !tbaa !193
  store ptr %1, ptr %4, align 8, !tbaa !589
  %5 = load ptr, ptr %3, align 8
  %6 = getelementptr inbounds nuw %"struct.std::__detail::_Node_iterator_base", ptr %5, i32 0, i32 0
  %7 = load ptr, ptr %4, align 8, !tbaa !589
  store ptr %7, ptr %6, align 8, !tbaa !195
  ret void
}

; Function Attrs: mustprogress nounwind uwtable
define linkonce_odr noundef ptr @_ZNKSt8__detail10_Hash_nodeISt4pairIKiPN3g2o10HyperGraph6VertexEELb0EE7_M_nextEv(ptr noundef nonnull align 8 dereferenceable(24) %0) #4 comdat align 2 {
  %2 = alloca ptr, align 8
  store ptr %0, ptr %2, align 8, !tbaa !589
  %3 = load ptr, ptr %2, align 8
  %4 = getelementptr inbounds nuw %"struct.std::__detail::_Hash_node_base", ptr %3, i32 0, i32 0
  %5 = load ptr, ptr %4, align 8, !tbaa !590
  ret ptr %5
}

; Function Attrs: mustprogress nounwind uwtable
define linkonce_odr noundef ptr @_ZN9__gnu_cxx16__aligned_bufferISt4pairIKiPN3g2o10HyperGraph6VertexEEE6_M_ptrEv(ptr noundef nonnull align 8 dereferenceable(16) %0) #4 comdat align 2 {
  %2 = alloca ptr, align 8
  store ptr %0, ptr %2, align 8, !tbaa !593
  %3 = load ptr, ptr %2, align 8
  %4 = call noundef ptr @_ZN9__gnu_cxx16__aligned_bufferISt4pairIKiPN3g2o10HyperGraph6VertexEEE7_M_addrEv(ptr noundef nonnull align 8 dereferenceable(16) %3) #3
  ret ptr %4
}

; Function Attrs: mustprogress nounwind uwtable
define linkonce_odr void @_ZNSt8__detail20_Node_const_iteratorISt4pairIKiPN3g2o10HyperGraph6VertexEELb0ELb0EEC2EPNS_10_Hash_nodeIS7_Lb0EEE(ptr noundef nonnull align 8 dereferenceable(8) %0, ptr noundef %1) unnamed_addr #4 comdat align 2 {
  %3 = alloca ptr, align 8
  %4 = alloca ptr, align 8
  store ptr %0, ptr %3, align 8, !tbaa !290
  store ptr %1, ptr %4, align 8, !tbaa !589
  %5 = load ptr, ptr %3, align 8
  %6 = load ptr, ptr %4, align 8, !tbaa !589
  call void @_ZNSt8__detail19_Node_iterator_baseISt4pairIKiPN3g2o10HyperGraph6VertexEELb0EEC2EPNS_10_Hash_nodeIS7_Lb0EEE(ptr noundef nonnull align 8 dereferenceable(8) %5, ptr noundef %6) #3
  ret void
}

; Function Attrs: mustprogress nounwind uwtable
define linkonce_odr noundef ptr @_ZNKSt10_HashtableIiSt4pairIKiPN3g2o10HyperGraph6VertexEESaIS6_ENSt8__detail10_Select1stESt8equal_toIiESt4hashIiENS8_18_Mod_range_hashingENS8_20_Default_ranged_hashENS8_20_Prime_rehash_policyENS8_17_Hashtable_traitsILb0ELb0ELb1EEEE8_M_beginEv(ptr noundef nonnull align 8 dereferenceable(56) %0) #4 comdat align 2 {
  %2 = alloca ptr, align 8
  store ptr %0, ptr %2, align 8, !tbaa !586
  %3 = load ptr, ptr %2, align 8
  %4 = getelementptr inbounds nuw %"class.std::_Hashtable", ptr %3, i32 0, i32 2
  %5 = getelementptr inbounds nuw %"struct.std::__detail::_Hash_node_base", ptr %4, i32 0, i32 0
  %6 = load ptr, ptr %5, align 8, !tbaa !588
  ret ptr %6
}

; Function Attrs: mustprogress nounwind uwtable
define linkonce_odr void @_ZNSt8__detail19_Node_iterator_baseISt4pairIKiPN3g2o10HyperGraph6VertexEELb0EE7_M_incrEv(ptr noundef nonnull align 8 dereferenceable(8) %0) #4 comdat align 2 {
  %2 = alloca ptr, align 8
  store ptr %0, ptr %2, align 8, !tbaa !193
  %3 = load ptr, ptr %2, align 8
  %4 = getelementptr inbounds nuw %"struct.std::__detail::_Node_iterator_base", ptr %3, i32 0, i32 0
  %5 = load ptr, ptr %4, align 8, !tbaa !195
  %6 = call noundef ptr @_ZNKSt8__detail10_Hash_nodeISt4pairIKiPN3g2o10HyperGraph6VertexEELb0EE7_M_nextEv(ptr noundef nonnull align 8 dereferenceable(24) %5) #3
  %7 = getelementptr inbounds nuw %"struct.std::__detail::_Node_iterator_base", ptr %3, i32 0, i32 0
  store ptr %6, ptr %7, align 8, !tbaa !195
  ret void
}

; Function Attrs: mustprogress nounwind uwtable
define linkonce_odr noundef ptr @_ZNSt8__detail21_Hash_node_value_baseISt4pairIKiPN3g2o10HyperGraph6VertexEEE9_M_valptrEv(ptr noundef nonnull align 8 dereferenceable(16) %0) #4 comdat align 2 {
  %2 = alloca ptr, align 8
  store ptr %0, ptr %2, align 8, !tbaa !591
  %3 = load ptr, ptr %2, align 8
  %4 = getelementptr inbounds nuw %"struct.std::__detail::_Hash_node_value_base", ptr %3, i32 0, i32 0
  %5 = call noundef ptr @_ZN9__gnu_cxx16__aligned_bufferISt4pairIKiPN3g2o10HyperGraph6VertexEEE6_M_ptrEv(ptr noundef nonnull align 8 dereferenceable(16) %4) #3
  ret ptr %5
}

; Function Attrs: mustprogress nounwind uwtable
define linkonce_odr ptr @_ZNKSt10_HashtableIiSt4pairIKiPN3g2o10HyperGraph6VertexEESaIS6_ENSt8__detail10_Select1stESt8equal_toIiESt4hashIiENS8_18_Mod_range_hashingENS8_20_Default_ranged_hashENS8_20_Prime_rehash_policyENS8_17_Hashtable_traitsILb0ELb0ELb1EEEE3endEv(ptr noundef nonnull align 8 dereferenceable(56) %0) #4 comdat align 2 {
  %2 = alloca %"struct.std::__detail::_Node_const_iterator", align 8
  %3 = alloca ptr, align 8
  store ptr %0, ptr %3, align 8, !tbaa !586
  call void @_ZNSt8__detail20_Node_const_iteratorISt4pairIKiPN3g2o10HyperGraph6VertexEELb0ELb0EEC2EPNS_10_Hash_nodeIS7_Lb0EEE(ptr noundef nonnull align 8 dereferenceable(8) %2, ptr noundef null) #3
  %4 = getelementptr inbounds nuw %"struct.std::__detail::_Node_const_iterator", ptr %2, i32 0, i32 0
  %5 = getelementptr inbounds nuw %"struct.std::__detail::_Node_iterator_base", ptr %4, i32 0, i32 0
  %6 = load ptr, ptr %5, align 8
  ret ptr %6
}

; Function Attrs: mustprogress nounwind uwtable
define linkonce_odr ptr @_ZNKSt10_HashtableIiSt4pairIKiPN3g2o10HyperGraph6VertexEESaIS6_ENSt8__detail10_Select1stESt8equal_toIiESt4hashIiENS8_18_Mod_range_hashingENS8_20_Default_ranged_hashENS8_20_Prime_rehash_policyENS8_17_Hashtable_traitsILb0ELb0ELb1EEEE5beginEv(ptr noundef nonnull align 8 dereferenceable(56) %0) #4 comdat align 2 {
  %2 = alloca %"struct.std::__detail::_Node_const_iterator", align 8
  %3 = alloca ptr, align 8
  store ptr %0, ptr %3, align 8, !tbaa !586
  %4 = load ptr, ptr %3, align 8
  %5 = call noundef ptr @_ZNKSt10_HashtableIiSt4pairIKiPN3g2o10HyperGraph6VertexEESaIS6_ENSt8__detail10_Select1stESt8equal_toIiESt4hashIiENS8_18_Mod_range_hashingENS8_20_Default_ranged_hashENS8_20_Prime_rehash_policyENS8_17_Hashtable_traitsILb0ELb0ELb1EEEE8_M_beginEv(ptr noundef nonnull align 8 dereferenceable(56) %4)
  call void @_ZNSt8__detail20_Node_const_iteratorISt4pairIKiPN3g2o10HyperGraph6VertexEELb0ELb0EEC2EPNS_10_Hash_nodeIS7_Lb0EEE(ptr noundef nonnull align 8 dereferenceable(8) %2, ptr noundef %5) #3
  %6 = getelementptr inbounds nuw %"struct.std::__detail::_Node_const_iterator", ptr %2, i32 0, i32 0
  %7 = getelementptr inbounds nuw %"struct.std::__detail::_Node_iterator_base", ptr %6, i32 0, i32 0
  %8 = load ptr, ptr %7, align 8
  ret ptr %8
}

; Function Attrs: mustprogress nounwind uwtable
define linkonce_odr noundef nonnull align 8 dereferenceable(8) ptr @_ZNSt8__detail20_Node_const_iteratorISt4pairIKiPN3g2o10HyperGraph6VertexEELb0ELb0EEppEv(ptr noundef nonnull align 8 dereferenceable(8) %0) #4 comdat align 2 {
  %2 = alloca ptr, align 8
  store ptr %0, ptr %2, align 8, !tbaa !290
  %3 = load ptr, ptr %2, align 8
  call void @_ZNSt8__detail19_Node_iterator_baseISt4pairIKiPN3g2o10HyperGraph6VertexEELb0EE7_M_incrEv(ptr noundef nonnull align 8 dereferenceable(8) %3) #3
  ret ptr %3
}

; Function Attrs: inlinehint mustprogress nounwind uwtable
define linkonce_odr noundef nonnull align 4 dereferenceable(4) ptr @_ZSt3maxIiERKT_S2_S2_(ptr noundef nonnull align 4 dereferenceable(4) %0, ptr noundef nonnull align 4 dereferenceable(4) %1) #14 comdat {
  %3 = alloca ptr, align 8
  %4 = alloca ptr, align 8
  %5 = alloca ptr, align 8
  store ptr %0, ptr %4, align 8, !tbaa !240
  store ptr %1, ptr %5, align 8, !tbaa !240
  %6 = load ptr, ptr %4, align 8, !tbaa !240
  %7 = load i32, ptr %6, align 4, !tbaa !104
  %8 = load ptr, ptr %5, align 8, !tbaa !240
  %9 = load i32, ptr %8, align 4, !tbaa !104
  %10 = icmp slt i32 %7, %9
  br i1 %10, label %11, label %13

11:                                               ; preds = %2
  %12 = load ptr, ptr %5, align 8, !tbaa !240
  store ptr %12, ptr %3, align 8
  br label %15

13:                                               ; preds = %2
  %14 = load ptr, ptr %4, align 8, !tbaa !240
  store ptr %14, ptr %3, align 8
  br label %15

15:                                               ; preds = %13, %11
  %16 = load ptr, ptr %3, align 8
  ret ptr %16
}

; Function Attrs: mustprogress nounwind uwtable
define linkonce_odr noundef i32 @_ZNK3g2o16OptimizableGraph6Vertex9dimensionEv(ptr noundef nonnull align 8 dereferenceable(128) %0) #4 comdat align 2 {
  %2 = alloca ptr, align 8
  store ptr %0, ptr %2, align 8, !tbaa !14
  %3 = load ptr, ptr %2, align 8
  %4 = getelementptr inbounds nuw %"class.g2o::OptimizableGraph::Vertex", ptr %3, i32 0, i32 7
  %5 = load i32, ptr %4, align 8, !tbaa !292
  ret i32 %5
}

; Function Attrs: mustprogress nounwind uwtable
define linkonce_odr noundef ptr @_ZNKSt8__detail20_Node_const_iteratorISt4pairIKiPN3g2o10HyperGraph6VertexEELb0ELb0EEptEv(ptr noundef nonnull align 8 dereferenceable(8) %0) #4 comdat align 2 {
  %2 = alloca ptr, align 8
  store ptr %0, ptr %2, align 8, !tbaa !290
  %3 = load ptr, ptr %2, align 8
  %4 = getelementptr inbounds nuw %"struct.std::__detail::_Node_iterator_base", ptr %3, i32 0, i32 0
  %5 = load ptr, ptr %4, align 8, !tbaa !195
  %6 = getelementptr inbounds i8, ptr %5, i64 8
  %7 = call noundef ptr @_ZNSt8__detail21_Hash_node_value_baseISt4pairIKiPN3g2o10HyperGraph6VertexEEE9_M_valptrEv(ptr noundef nonnull align 8 dereferenceable(16) %6) #3
  ret ptr %7
}

; Function Attrs: mustprogress nounwind uwtable
define linkonce_odr noundef zeroext i1 @_ZNSt8__detailneERKNS_19_Node_iterator_baseISt4pairIKiPN3g2o10HyperGraph6VertexEELb0EEESA_(ptr noundef nonnull align 8 dereferenceable(8) %0, ptr noundef nonnull align 8 dereferenceable(8) %1) #4 comdat {
  %3 = alloca ptr, align 8
  %4 = alloca ptr, align 8
  store ptr %0, ptr %3, align 8, !tbaa !193
  store ptr %1, ptr %4, align 8, !tbaa !193
  %5 = load ptr, ptr %3, align 8, !tbaa !193
  %6 = getelementptr inbounds nuw %"struct.std::__detail::_Node_iterator_base", ptr %5, i32 0, i32 0
  %7 = load ptr, ptr %6, align 8, !tbaa !195
  %8 = load ptr, ptr %4, align 8, !tbaa !193
  %9 = getelementptr inbounds nuw %"struct.std::__detail::_Node_iterator_base", ptr %8, i32 0, i32 0
  %10 = load ptr, ptr %9, align 8, !tbaa !195
  %11 = icmp ne ptr %7, %10
  ret i1 %11
}

; Function Attrs: mustprogress nounwind uwtable
define linkonce_odr ptr @_ZNKSt13unordered_mapIiPN3g2o10HyperGraph6VertexESt4hashIiESt8equal_toIiESaISt4pairIKiS3_EEE3endEv(ptr noundef nonnull align 8 dereferenceable(56) %0) #4 comdat align 2 {
  %2 = alloca %"struct.std::__detail::_Node_const_iterator", align 8
  %3 = alloca ptr, align 8
  store ptr %0, ptr %3, align 8, !tbaa !191
  %4 = load ptr, ptr %3, align 8
  %5 = getelementptr inbounds nuw %"class.std::unordered_map", ptr %4, i32 0, i32 0
  %6 = call ptr @_ZNKSt10_HashtableIiSt4pairIKiPN3g2o10HyperGraph6VertexEESaIS6_ENSt8__detail10_Select1stESt8equal_toIiESt4hashIiENS8_18_Mod_range_hashingENS8_20_Default_ranged_hashENS8_20_Prime_rehash_policyENS8_17_Hashtable_traitsILb0ELb0ELb1EEEE3endEv(ptr noundef nonnull align 8 dereferenceable(56) %5) #3
  %7 = getelementptr inbounds nuw %"struct.std::__detail::_Node_const_iterator", ptr %2, i32 0, i32 0
  %8 = getelementptr inbounds nuw %"struct.std::__detail::_Node_iterator_base", ptr %7, i32 0, i32 0
  store ptr %6, ptr %8, align 8
  %9 = getelementptr inbounds nuw %"struct.std::__detail::_Node_const_iterator", ptr %2, i32 0, i32 0
  %10 = getelementptr inbounds nuw %"struct.std::__detail::_Node_iterator_base", ptr %9, i32 0, i32 0
  %11 = load ptr, ptr %10, align 8
  ret ptr %11
}

; Function Attrs: mustprogress nounwind uwtable
define linkonce_odr ptr @_ZNKSt13unordered_mapIiPN3g2o10HyperGraph6VertexESt4hashIiESt8equal_toIiESaISt4pairIKiS3_EEE5beginEv(ptr noundef nonnull align 8 dereferenceable(56) %0) #4 comdat align 2 {
  %2 = alloca %"struct.std::__detail::_Node_const_iterator", align 8
  %3 = alloca ptr, align 8
  store ptr %0, ptr %3, align 8, !tbaa !191
  %4 = load ptr, ptr %3, align 8
  %5 = getelementptr inbounds nuw %"class.std::unordered_map", ptr %4, i32 0, i32 0
  %6 = call ptr @_ZNKSt10_HashtableIiSt4pairIKiPN3g2o10HyperGraph6VertexEESaIS6_ENSt8__detail10_Select1stESt8equal_toIiESt4hashIiENS8_18_Mod_range_hashingENS8_20_Default_ranged_hashENS8_20_Prime_rehash_policyENS8_17_Hashtable_traitsILb0ELb0ELb1EEEE5beginEv(ptr noundef nonnull align 8 dereferenceable(56) %5) #3
  %7 = getelementptr inbounds nuw %"struct.std::__detail::_Node_const_iterator", ptr %2, i32 0, i32 0
  %8 = getelementptr inbounds nuw %"struct.std::__detail::_Node_iterator_base", ptr %7, i32 0, i32 0
  store ptr %6, ptr %8, align 8
  %9 = getelementptr inbounds nuw %"struct.std::__detail::_Node_const_iterator", ptr %2, i32 0, i32 0
  %10 = getelementptr inbounds nuw %"struct.std::__detail::_Node_iterator_base", ptr %9, i32 0, i32 0
  %11 = load ptr, ptr %10, align 8
  ret ptr %11
}

; Function Attrs: mustprogress nounwind uwtable
define linkonce_odr noundef nonnull align 8 dereferenceable(56) ptr @_ZNK3g2o10HyperGraph8verticesEv(ptr noundef nonnull align 8 dereferenceable(112) %0) #4 comdat align 2 {
  %2 = alloca ptr, align 8
  store ptr %0, ptr %2, align 8, !tbaa !166
  %3 = load ptr, ptr %2, align 8
  %4 = getelementptr inbounds nuw %"class.g2o::HyperGraph", ptr %3, i32 0, i32 1
  ret ptr %4
}

; Function Attrs: mustprogress uwtable
define noundef i32 @_ZNK3g2o16OptimizableGraph12maxDimensionEv(ptr noundef nonnull align 8 dereferenceable(288) %0) #6 align 2 {
  %2 = alloca ptr, align 8
  %3 = alloca i32, align 4
  %4 = alloca %"struct.std::__detail::_Node_const_iterator", align 8
  %5 = alloca %"struct.std::__detail::_Node_const_iterator", align 8
  %6 = alloca ptr, align 8
  %7 = alloca i32, align 4
  store ptr %0, ptr %2, align 8, !tbaa !111
  %8 = load ptr, ptr %2, align 8
  call void @llvm.lifetime.start.p0(i64 4, ptr %3) #3
  store i32 0, ptr %3, align 4, !tbaa !104
  call void @llvm.lifetime.start.p0(i64 8, ptr %4) #3
  %9 = call noundef nonnull align 8 dereferenceable(56) ptr @_ZNK3g2o10HyperGraph8verticesEv(ptr noundef nonnull align 8 dereferenceable(112) %8)
  %10 = call ptr @_ZNKSt13unordered_mapIiPN3g2o10HyperGraph6VertexESt4hashIiESt8equal_toIiESaISt4pairIKiS3_EEE5beginEv(ptr noundef nonnull align 8 dereferenceable(56) %9) #3
  %11 = getelementptr inbounds nuw %"struct.std::__detail::_Node_const_iterator", ptr %4, i32 0, i32 0
  %12 = getelementptr inbounds nuw %"struct.std::__detail::_Node_iterator_base", ptr %11, i32 0, i32 0
  store ptr %10, ptr %12, align 8
  br label %13

13:                                               ; preds = %28, %1
  call void @llvm.lifetime.start.p0(i64 8, ptr %5) #3
  %14 = call noundef nonnull align 8 dereferenceable(56) ptr @_ZNK3g2o10HyperGraph8verticesEv(ptr noundef nonnull align 8 dereferenceable(112) %8)
  %15 = call ptr @_ZNKSt13unordered_mapIiPN3g2o10HyperGraph6VertexESt4hashIiESt8equal_toIiESaISt4pairIKiS3_EEE3endEv(ptr noundef nonnull align 8 dereferenceable(56) %14) #3
  %16 = getelementptr inbounds nuw %"struct.std::__detail::_Node_const_iterator", ptr %5, i32 0, i32 0
  %17 = getelementptr inbounds nuw %"struct.std::__detail::_Node_iterator_base", ptr %16, i32 0, i32 0
  store ptr %15, ptr %17, align 8
  %18 = call noundef zeroext i1 @_ZNSt8__detailneERKNS_19_Node_iterator_baseISt4pairIKiPN3g2o10HyperGraph6VertexEELb0EEESA_(ptr noundef nonnull align 8 dereferenceable(8) %4, ptr noundef nonnull align 8 dereferenceable(8) %5) #3
  call void @llvm.lifetime.end.p0(i64 8, ptr %5) #3
  br i1 %18, label %20, label %19

19:                                               ; preds = %13
  call void @llvm.lifetime.end.p0(i64 8, ptr %4) #3
  br label %30

20:                                               ; preds = %13
  call void @llvm.lifetime.start.p0(i64 8, ptr %6) #3
  %21 = call noundef ptr @_ZNKSt8__detail20_Node_const_iteratorISt4pairIKiPN3g2o10HyperGraph6VertexEELb0ELb0EEptEv(ptr noundef nonnull align 8 dereferenceable(8) %4) #3
  %22 = getelementptr inbounds nuw %"struct.std::pair", ptr %21, i32 0, i32 1
  %23 = load ptr, ptr %22, align 8, !tbaa !176
  store ptr %23, ptr %6, align 8, !tbaa !14
  call void @llvm.lifetime.start.p0(i64 4, ptr %7) #3
  %24 = load ptr, ptr %6, align 8, !tbaa !14
  %25 = call noundef i32 @_ZNK3g2o16OptimizableGraph6Vertex9dimensionEv(ptr noundef nonnull align 8 dereferenceable(128) %24)
  store i32 %25, ptr %7, align 4, !tbaa !104
  %26 = call noundef nonnull align 4 dereferenceable(4) ptr @_ZSt3maxIiERKT_S2_S2_(ptr noundef nonnull align 4 dereferenceable(4) %3, ptr noundef nonnull align 4 dereferenceable(4) %7)
  %27 = load i32, ptr %26, align 4, !tbaa !104
  store i32 %27, ptr %3, align 4, !tbaa !104
  call void @llvm.lifetime.end.p0(i64 4, ptr %7) #3
  call void @llvm.lifetime.end.p0(i64 8, ptr %6) #3
  br label %28

28:                                               ; preds = %20
  %29 = call noundef nonnull align 8 dereferenceable(8) ptr @_ZNSt8__detail20_Node_const_iteratorISt4pairIKiPN3g2o10HyperGraph6VertexEELb0ELb0EEppEv(ptr noundef nonnull align 8 dereferenceable(8) %4) #3
  br label %13, !llvm.loop !289

30:                                               ; preds = %19
  %31 = load i32, ptr %3, align 4, !tbaa !104
  call void @llvm.lifetime.end.p0(i64 4, ptr %3) #3
  ret i32 %31
}