; Function Attrs: mustprogress nofree norecurse nosync nounwind willreturn memory(read, inaccessiblemem: none) uwtable
define noundef range(i32 0, -2147483648) i32 @_ZNK3g2o16OptimizableGraph12maxDimensionEv(ptr noundef nonnull readonly align 8 captures(none) dereferenceable(288) %0) local_unnamed_addr #15 align 2 {
  %2 = getelementptr inbounds nuw i8, ptr %0, i64 24
  %.sroa.03.09 = load ptr, ptr %2, align 8, !tbaa !142
  %.not10 = icmp eq ptr %.sroa.03.09, null
  br i1 %.not10, label %._crit_edge, label %.lr.ph

._crit_edge:                                      ; preds = %.lr.ph, %1
  %.0.lcssa = phi i32 [ 0, %1 ], [ %.sroa.speculated, %.lr.ph ]
  ret i32 %.0.lcssa

.lr.ph:                                           ; preds = %1, %.lr.ph
  %.sroa.03.012 = phi ptr [ %.sroa.03.0, %.lr.ph ], [ %.sroa.03.09, %1 ]
  %.011 = phi i32 [ %.sroa.speculated, %.lr.ph ], [ 0, %1 ]
  %3 = getelementptr inbounds nuw i8, ptr %.sroa.03.012, i64 16
  %4 = load ptr, ptr %3, align 8, !tbaa !143
  %5 = getelementptr inbounds nuw i8, ptr %4, i64 104
  %6 = load i32, ptr %5, align 8, !tbaa !199
  %.sroa.speculated = tail call i32 @llvm.smax.i32(i32 %.011, i32 %6)
  %.sroa.03.0 = load ptr, ptr %.sroa.03.012, align 8, !tbaa !142
  %.not = icmp eq ptr %.sroa.03.0, null
  br i1 %.not, label %._crit_edge, label %.lr.ph, !llvm.loop !200
}